; Function Attrs: mustprogress uwtable
define void @_ZN32pxrInternal_v0_24__pxrReserved__8HdEngine18SetTaskContextDataERKNS_7TfTokenERKNS_7VtValueE(ptr noundef nonnull align 8 dereferenceable(64) %0, ptr noundef nonnull align 8 dereferenceable(8) %1, ptr noundef nonnull align 8 dereferenceable(16) %2) local_unnamed_addr #4 align 2 {
  %4 = getelementptr inbounds nuw i8, ptr %0, i64 8
  %5 = tail call { ptr, i8 } @_ZNSt10_HashtableIN32pxrInternal_v0_24__pxrReserved__7TfTokenESt4pairIKS1_NS0_7VtValueEESaIS5_ENSt8__detail10_Select1stESt8equal_toIS1_ENS1_11HashFunctorENS7_18_Mod_range_hashingENS7_20_Default_ranged_hashENS7_20_Prime_rehash_policyENS7_17_Hashtable_traitsILb1ELb0ELb1EEEE10_M_emplaceIJRS3_RKS4_EEES2_INS7_14_Node_iteratorIS5_Lb0ELb1EEEbESt17integral_constantIbLb1EEDpOT_(ptr noundef nonnull align 8 dereferenceable(56) %4, ptr noundef nonnull align 8 dereferenceable(8) %1, ptr noundef nonnull align 8 dereferenceable(16) %2)
  %.fca.1.extract = extractvalue { ptr, i8 } %5, 1
  %6 = trunc i8 %.fca.1.extract to i1
  br i1 %6, label %_ZN32pxrInternal_v0_24__pxrReserved__7VtValueaSERKS0_.exit, label %7

7:                                                ; preds = %3
  %.fca.0.extract = extractvalue { ptr, i8 } %5, 0
  %8 = getelementptr inbounds i8, ptr %.fca.0.extract, i64 16
  %.not.i = icmp eq ptr %8, %2
  br i1 %.not.i, label %_ZN32pxrInternal_v0_24__pxrReserved__7VtValueaSERKS0_.exit, label %9

9:                                                ; preds = %7
  tail call void @_ZN32pxrInternal_v0_24__pxrReserved__7VtValue5_CopyERKS0_RS0_(ptr noundef nonnull align 8 dereferenceable(16) %2, ptr noundef nonnull align 8 dereferenceable(16) %8)
  br label %_ZN32pxrInternal_v0_24__pxrReserved__7VtValueaSERKS0_.exit

_ZN32pxrInternal_v0_24__pxrReserved__7VtValueaSERKS0_.exit: ; preds = %9, %7, %3
  ret void
}